target datalayout = "e-m:e-p270:32:32-p271:32:32-p272:64:64-i64:64-i128:128-f80:128-n8:16:32:64-S128"
target triple = "x86_64-pc-linux-gnu"

; Function Attrs: nounwind uwtable
define i32 @Wlc_BlastLessSigned3(ptr noundef %0, ptr noundef %1, ptr noundef %2, i32 noundef %3) #0 {
  %5 = alloca ptr, align 8
  %6 = alloca ptr, align 8
  %7 = alloca ptr, align 8
  %8 = alloca i32, align 4
  %9 = alloca i32, align 4
  store ptr %0, ptr %5, align 8, !tbaa !38
  store ptr %1, ptr %6, align 8, !tbaa !3
  store ptr %2, ptr %7, align 8, !tbaa !3
  store i32 %3, ptr %8, align 4, !tbaa !8
  call void @llvm.lifetime.start.p0(i64 4, ptr %9) #12
  %10 = load ptr, ptr %5, align 8, !tbaa !38
  %11 = load ptr, ptr %6, align 8, !tbaa !3
  %12 = load i32, ptr %8, align 4, !tbaa !8
  %13 = sub nsw i32 %12, 1
  %14 = sext i32 %13 to i64
  %15 = getelementptr inbounds i32, ptr %11, i64 %14
  %16 = load i32, ptr %15, align 4, !tbaa !8
  %17 = load ptr, ptr %7, align 8, !tbaa !3
  %18 = load i32, ptr %8, align 4, !tbaa !8
  %19 = sub nsw i32 %18, 1
  %20 = sext i32 %19 to i64
  %21 = getelementptr inbounds i32, ptr %17, i64 %20
  %22 = load i32, ptr %21, align 4, !tbaa !8
  %23 = call i32 @Gia_ManHashXor(ptr noundef %10, i32 noundef %16, i32 noundef %22)
  store i32 %23, ptr %9, align 4, !tbaa !8
  %24 = load ptr, ptr %5, align 8, !tbaa !38
  %25 = load i32, ptr %9, align 4, !tbaa !8
  %26 = load ptr, ptr %6, align 8, !tbaa !3
  %27 = load i32, ptr %8, align 4, !tbaa !8
  %28 = sub nsw i32 %27, 1
  %29 = sext i32 %28 to i64
  %30 = getelementptr inbounds i32, ptr %26, i64 %29
  %31 = load i32, ptr %30, align 4, !tbaa !8
  %32 = load ptr, ptr %5, align 8, !tbaa !38
  %33 = load ptr, ptr %6, align 8, !tbaa !3
  %34 = load ptr, ptr %7, align 8, !tbaa !3
  %35 = load i32, ptr %8, align 4, !tbaa !8
  %36 = sub nsw i32 %35, 1
  %37 = call i32 @Wlc_BlastLess3(ptr noundef %32, ptr noundef %33, ptr noundef %34, i32 noundef %36)
  %38 = call i32 @Gia_ManHashMux(ptr noundef %24, i32 noundef %25, i32 noundef %31, i32 noundef %37)
  call void @llvm.lifetime.end.p0(i64 4, ptr %9) #12
  ret i32 %38
}