; Function Attrs: nounwind uwtable
define i32 @Wlc_BlastLessSigned3(ptr noundef %0, ptr noundef readonly captures(none) %1, ptr noundef readonly captures(none) %2, i32 noundef %3) local_unnamed_addr #2 {
  %5 = add nsw i32 %3, -1
  %6 = sext i32 %5 to i64
  %7 = getelementptr inbounds i32, ptr %1, i64 %6
  %8 = load i32, ptr %7, align 4, !tbaa !3
  %9 = getelementptr inbounds i32, ptr %2, i64 %6
  %10 = load i32, ptr %9, align 4, !tbaa !3
  %11 = tail call i32 @Gia_ManHashXor(ptr noundef %0, i32 noundef %8, i32 noundef %10) #23
  %12 = load i32, ptr %7, align 4, !tbaa !3
  %13 = tail call i32 @Wlc_BlastLess3(ptr noundef %0, ptr noundef %1, ptr noundef %2, i32 noundef %5)
  %14 = tail call i32 @Gia_ManHashMux(ptr noundef %0, i32 noundef %11, i32 noundef %12, i32 noundef %13) #23
  ret i32 %14
}